; ModuleID = 'source-C-CXX/26/68.c'
source_filename = "source-C-CXX/26/68.c"
target datalayout = "e-m:e-p270:32:32-p271:32:32-p272:64:64-i64:64-f80:128-n8:16:32:64-S128"
target triple = "x86_64-pc-linux-gnu"

@.str = private unnamed_addr constant [3 x i8] c"%d\00", align 1
@.str.1 = private unnamed_addr constant [12 x i8] c"%lf %lf %lf\00", align 1
@.str.2 = private unnamed_addr constant [29 x i8] c"x1=%.5f+%.5fi;x2=%.5f-%.5fi\0A\00", align 1
@.str.3 = private unnamed_addr constant [12 x i8] c"x1=x2=%.5f\0A\00", align 1
@.str.4 = private unnamed_addr constant [17 x i8] c"x1=%.5f;x2=%.5f\0A\00", align 1

; Function Attrs: nofree nounwind sspstrong uwtable
define dso_local void @main() local_unnamed_addr #0 {
  %1 = alloca i32, align 4
  %2 = alloca double, align 8
  %3 = alloca double, align 8
  %4 = alloca double, align 8
  %5 = bitcast i32* %1 to i8*
  call void @llvm.lifetime.start.p0i8(i64 4, i8* nonnull %5) #4
  %6 = bitcast double* %2 to i8*
  call void @llvm.lifetime.start.p0i8(i64 8, i8* nonnull %6) #4
  %7 = bitcast double* %3 to i8*
  call void @llvm.lifetime.start.p0i8(i64 8, i8* nonnull %7) #4
  %8 = bitcast double* %4 to i8*
  call void @llvm.lifetime.start.p0i8(i64 8, i8* nonnull %8) #4
  %9 = call i32 (i8*, ...) @__isoc99_scanf(i8* getelementptr inbounds ([3 x i8], [3 x i8]* @.str, i64 0, i64 0), i32* nonnull %1)
  %10 = load i32, i32* %1, align 4, !tbaa !5
  %11 = icmp slt i32 %10, 1
  br i1 %11, label %67, label %12

12:                                               ; preds = %0, %63
  %13 = phi i32 [ %64, %63 ], [ 1, %0 ]
  %14 = call i32 (i8*, ...) @__isoc99_scanf(i8* getelementptr inbounds ([12 x i8], [12 x i8]* @.str.1, i64 0, i64 0), double* nonnull %2, double* nonnull %3, double* nonnull %4)
  %15 = load double, double* %3, align 8, !tbaa !9
  %16 = fmul double %15, %15
  %17 = load double, double* %2, align 8, !tbaa !9
  %18 = fmul double %17, 4.000000e+00
  %19 = load double, double* %4, align 8, !tbaa !9
  %20 = fmul double %18, %19
  %21 = fsub double %16, %20
  %22 = fcmp olt double %21, 0.000000e+00
  br i1 %22, label %23, label %33

23:                                               ; preds = %12
  %24 = fmul double %17, 2.000000e+00
  %25 = fneg double %15
  %26 = fdiv double %25, %24
  %27 = fsub double %20, %16
  %28 = call double @sqrt(double %27) #4
  %29 = load double, double* %2, align 8, !tbaa !9
  %30 = fmul double %29, 2.000000e+00
  %31 = fdiv double %28, %30
  %32 = call i32 (i8*, ...) @printf(i8* nonnull dereferenceable(1) getelementptr inbounds ([29 x i8], [29 x i8]* @.str.2, i64 0, i64 0), double %26, double %31, double %26, double %31)
  br label %63

33:                                               ; preds = %12
  %34 = fcmp ult double %21, 0.000000e+00
  br i1 %34, label %63, label %35

35:                                               ; preds = %33
  %36 = call double @sqrt(double %21) #4
  %37 = load double, double* %2, align 8, !tbaa !9
  %38 = load double, double* %3, align 8, !tbaa !9
  %39 = fneg double %38
  %40 = fmul double %38, %38
  %41 = fmul double %37, 4.000000e+00
  %42 = load double, double* %4, align 8, !tbaa !9
  %43 = fmul double %41, %42
  %44 = fsub double %40, %43
  %45 = call double @sqrt(double %44) #4
  %46 = insertelement <2 x double> poison, double %36, i32 0
  %47 = insertelement <2 x double> %46, double %39, i32 1
  %48 = insertelement <2 x double> poison, double %15, i32 0
  %49 = insertelement <2 x double> %48, double %45, i32 1
  %50 = fsub <2 x double> %47, %49
  %51 = load double, double* %2, align 8, !tbaa !9
  %52 = insertelement <2 x double> poison, double %37, i32 0
  %53 = insertelement <2 x double> %52, double %51, i32 1
  %54 = fmul <2 x double> %53, <double 2.000000e+00, double 2.000000e+00>
  %55 = fdiv <2 x double> %50, %54
  %56 = extractelement <2 x double> %55, i32 0
  %57 = extractelement <2 x double> %55, i32 1
  %58 = fcmp oeq double %56, %57
  br i1 %58, label %59, label %61

59:                                               ; preds = %35
  %60 = call i32 (i8*, ...) @printf(i8* nonnull dereferenceable(1) getelementptr inbounds ([12 x i8], [12 x i8]* @.str.3, i64 0, i64 0), double %56)
  br label %63

61:                                               ; preds = %35
  %62 = call i32 (i8*, ...) @printf(i8* nonnull dereferenceable(1) getelementptr inbounds ([17 x i8], [17 x i8]* @.str.4, i64 0, i64 0), double %56, double %57)
  br label %63

63:                                               ; preds = %23, %59, %61, %33
  %64 = add nuw nsw i32 %13, 1
  %65 = load i32, i32* %1, align 4, !tbaa !5
  %66 = icmp slt i32 %13, %65
  br i1 %66, label %12, label %67, !llvm.loop !11

67:                                               ; preds = %63, %0
  call void @llvm.lifetime.end.p0i8(i64 8, i8* nonnull %8) #4
  call void @llvm.lifetime.end.p0i8(i64 8, i8* nonnull %7) #4
  call void @llvm.lifetime.end.p0i8(i64 8, i8* nonnull %6) #4
  call void @llvm.lifetime.end.p0i8(i64 4, i8* nonnull %5) #4
  ret void
}

; Function Attrs: argmemonly mustprogress nofree nosync nounwind willreturn
declare void @llvm.lifetime.start.p0i8(i64 immarg, i8* nocapture) #1

; Function Attrs: nofree nounwind
declare noundef i32 @__isoc99_scanf(i8* nocapture noundef readonly, ...) local_unnamed_addr #2

; Function Attrs: mustprogress nofree nounwind willreturn
declare double @sqrt(double) local_unnamed_addr #3

; Function Attrs: nofree nounwind
declare noundef i32 @printf(i8* nocapture noundef readonly, ...) local_unnamed_addr #2

; Function Attrs: argmemonly mustprogress nofree nosync nounwind willreturn
declare void @llvm.lifetime.end.p0i8(i64 immarg, i8* nocapture) #1


!llvm.module.flags = !{!0, !1, !2, !3}
!llvm.ident = !{!4}

!0 = !{i32 1, !"wchar_size", i32 4}
!1 = !{i32 7, !"PIC Level", i32 2}
!2 = !{i32 7, !"PIE Level", i32 2}
!3 = !{i32 7, !"uwtable", i32 1}
!4 = !{!"clang version 13.0.0"}
!5 = !{!6, !6, i64 0}
!6 = !{!"int", !7, i64 0}
!7 = !{!"omnipotent char", !8, i64 0}
!8 = !{!"Simple C/C++ TBAA"}
!9 = !{!10, !10, i64 0}
!10 = !{!"double", !7, i64 0}
!11 = distinct !{!11, !12}
!12 = !{!"llvm.loop.mustprogress"}
